; Function Attrs: cold nounwind uwtable
define internal noundef i32 @panic(ptr noundef %0) #9 {
  %2 = tail call ptr @lua_tolstring(ptr noundef %0, i32 noundef -1, ptr noundef null) #13
  %3 = load ptr, ptr @stderr, align 8, !tbaa !58
  %4 = tail call i64 @fwrite(ptr nonnull @.str.7, i64 45, i64 1, ptr %3) #16
  %.not = icmp eq ptr %2, null
  %5 = select i1 %.not, ptr @.str.8, ptr %2
  %6 = load ptr, ptr @stderr, align 8, !tbaa !58
  %7 = tail call i32 @fputs(ptr noundef nonnull %5, ptr noundef %6) #16
  %8 = load ptr, ptr @stderr, align 8, !tbaa !58
  %9 = tail call i32 @fputc(i32 noundef 41, ptr noundef %8)
  %10 = load ptr, ptr @stderr, align 8, !tbaa !58
  %11 = tail call i32 @fputc(i32 noundef 10, ptr noundef %10)
  %12 = load ptr, ptr @stderr, align 8, !tbaa !58
  %13 = tail call i32 @fflush(ptr noundef %12)
  ret i32 0
}